target datalayout = "e-m:e-p270:32:32-p271:32:32-p272:64:64-i64:64-i128:128-f80:128-n8:16:32:64-S128"
target triple = "x86_64-pc-linux-gnu"

%struct.Mig_Man_t_ = type { ptr, i32, i32, i32, %struct.Vec_Ptr_t_, %struct.Vec_Int_t_, %struct.Vec_Int_t_, ptr, i32, i32, %struct.Vec_Int_t_, %struct.Vec_Int_t_, %struct.Vec_Int_t_, %struct.Vec_Int_t_, %struct.Vec_Int_t_, ptr }
%struct.Vec_Ptr_t_ = type { i32, i32, ptr }
%struct.Vec_Int_t_ = type { i32, i32, ptr }
%struct.Gia_Man_t_ = type { ptr, ptr, i32, i32, i32, i32, ptr, ptr, i32, i32, i32, ptr, ptr, %struct.Vec_Int_t_, %struct.Vec_Int_t_, i32, i32, i32, %struct.Vec_Int_t_, ptr, ptr, ptr, i32, i32, i32, i32, ptr, ptr, ptr, ptr, ptr, i32, i32, ptr, i32, ptr, ptr, ptr, ptr, ptr, ptr, ptr, ptr, ptr, ptr, ptr, ptr, ptr, ptr, ptr, ptr, ptr, ptr, %struct.Vec_Int_t_, %struct.Vec_Int_t_, ptr, ptr, ptr, ptr, ptr, ptr, ptr, ptr, ptr, ptr, ptr, ptr, ptr, ptr, ptr, ptr, ptr, ptr, ptr, ptr, ptr, i32, float, float, ptr, ptr, i32, ptr, ptr, ptr, ptr, ptr, ptr, ptr, ptr, ptr, ptr, ptr, ptr, ptr, ptr, ptr, i64, i64, ptr, ptr, i32, i32, i32, i32, i32, i32, i32, i32, i32, i32, i32, i32, ptr, ptr, ptr, ptr, ptr, ptr, ptr, ptr, i32, i32, i32, ptr, i32, i32, ptr, ptr, ptr, ptr, ptr, ptr, i32, i32, ptr, %struct.Vec_Int_t_, %struct.Vec_Int_t_, %struct.Vec_Int_t_, ptr, ptr, ptr }
%struct.Gia_Obj_t_ = type <{ i64, i32 }>
%struct.Mig_Obj_t_ = type { [4 x %struct.Mig_Fan_t_] }
%struct.Mig_Fan_t_ = type { i32 }

; Function Attrs: nounwind uwtable
define internal i32 @Mig_FanId(ptr noundef %0, i32 noundef %1) #0 {
  %3 = alloca ptr, align 8
  %4 = alloca i32, align 4
  store ptr %0, ptr %3, align 8
  store i32 %1, ptr %4, align 4
  %5 = load ptr, ptr %3, align 8
  %6 = getelementptr inbounds %struct.Mig_Obj_t_, ptr %5, i32 0, i32 0
  %7 = load i32, ptr %4, align 4
  %8 = sext i32 %7 to i64
  %9 = getelementptr inbounds [4 x %struct.Mig_Fan_t_], ptr %6, i64 0, i64 %8
  %10 = load i32, ptr %9, align 4
  %11 = lshr i32 %10, 1
  ret i32 %11
}

; Function Attrs: nounwind uwtable
define internal ptr @Vec_PtrEntry(ptr noundef %0, i32 noundef %1) #0 {
  %3 = alloca ptr, align 8
  %4 = alloca i32, align 4
  store ptr %0, ptr %3, align 8
  store i32 %1, ptr %4, align 4
  %5 = load ptr, ptr %3, align 8
  %6 = getelementptr inbounds %struct.Vec_Ptr_t_, ptr %5, i32 0, i32 2
  %7 = load ptr, ptr %6, align 8
  %8 = load i32, ptr %4, align 4
  %9 = sext i32 %8 to i64
  %10 = getelementptr inbounds ptr, ptr %7, i64 %9
  %11 = load ptr, ptr %10, align 8
  ret ptr %11
}

; Function Attrs: nounwind uwtable
define internal i32 @Mig_IdPage(i32 noundef %0) #0 {
  %2 = alloca i32, align 4
  store i32 %0, ptr %2, align 4
  %3 = load i32, ptr %2, align 4
  %4 = ashr i32 %3, 12
  ret i32 %4
}

; Function Attrs: nounwind uwtable
define internal void @Vec_IntWriteEntry(ptr noundef %0, i32 noundef %1, i32 noundef %2) #0 {
  %4 = alloca ptr, align 8
  %5 = alloca i32, align 4
  %6 = alloca i32, align 4
  store ptr %0, ptr %4, align 8
  store i32 %1, ptr %5, align 4
  store i32 %2, ptr %6, align 4
  %7 = load i32, ptr %6, align 4
  %8 = load ptr, ptr %4, align 8
  %9 = getelementptr inbounds %struct.Vec_Int_t_, ptr %8, i32 0, i32 2
  %10 = load ptr, ptr %9, align 8
  %11 = load i32, ptr %5, align 4
  %12 = sext i32 %11 to i64
  %13 = getelementptr inbounds i32, ptr %10, i64 %12
  store i32 %7, ptr %13, align 4
  ret void
}

; Function Attrs: nounwind uwtable
define internal i32 @Mig_ObjId(ptr noundef %0) #0 {
  %2 = alloca ptr, align 8
  store ptr %0, ptr %2, align 8
  %3 = load ptr, ptr %2, align 8
  %4 = call i32 @Mig_FanId(ptr noundef %3, i32 noundef 3)
  ret i32 %4
}

; Function Attrs: nounwind uwtable
define internal ptr @Mig_ObjMan(ptr noundef %0) #0 {
  %2 = alloca ptr, align 8
  store ptr %0, ptr %2, align 8
  %3 = load ptr, ptr %2, align 8
  %4 = load ptr, ptr %2, align 8
  %5 = call i32 @Mig_ObjId(ptr noundef %4)
  %6 = call i32 @Mig_IdCell(i32 noundef %5)
  %7 = sext i32 %6 to i64
  %8 = sub i64 0, %7
  %9 = getelementptr inbounds %struct.Mig_Obj_t_, ptr %3, i64 %8
  %10 = getelementptr inbounds %struct.Mig_Obj_t_, ptr %9, i64 -1
  %11 = load ptr, ptr %10, align 8
  ret ptr %11
}

; Function Attrs: nounwind uwtable
define internal i32 @Mig_FanSetCompl(ptr noundef %0, i32 noundef %1, i32 noundef %2) #0 {
  %4 = alloca ptr, align 8
  %5 = alloca i32, align 4
  %6 = alloca i32, align 4
  store ptr %0, ptr %4, align 8
  store i32 %1, ptr %5, align 4
  store i32 %2, ptr %6, align 4
  %7 = load i32, ptr %6, align 4
  %8 = load ptr, ptr %4, align 8
  %9 = getelementptr inbounds %struct.Mig_Obj_t_, ptr %8, i32 0, i32 0
  %10 = load i32, ptr %5, align 4
  %11 = sext i32 %10 to i64
  %12 = getelementptr inbounds [4 x %struct.Mig_Fan_t_], ptr %9, i64 0, i64 %11
  %13 = load i32, ptr %12, align 4
  %14 = and i32 %7, 1
  %15 = and i32 %13, -2
  %16 = or i32 %15, %14
  store i32 %16, ptr %12, align 4
  ret i32 %14
}

; Function Attrs: nounwind uwtable
define internal i32 @Mig_IdCell(i32 noundef %0) #0 {
  %2 = alloca i32, align 4
  store i32 %0, ptr %2, align 4
  %3 = load i32, ptr %2, align 4
  %4 = and i32 %3, 4095
  ret i32 %4
}

; Function Attrs: nounwind uwtable
define internal ptr @Mig_ManPage(ptr noundef %0, i32 noundef %1) #0 {
  %3 = alloca ptr, align 8
  %4 = alloca i32, align 4
  store ptr %0, ptr %3, align 8
  store i32 %1, ptr %4, align 4
  %5 = load ptr, ptr %3, align 8
  %6 = getelementptr inbounds %struct.Mig_Man_t_, ptr %5, i32 0, i32 4
  %7 = load i32, ptr %4, align 4
  %8 = call i32 @Mig_IdPage(i32 noundef %7)
  %9 = call ptr @Vec_PtrEntry(ptr noundef %6, i32 noundef %8)
  ret ptr %9
}

; Function Attrs: nounwind uwtable
define internal void @Vec_IntGrow(ptr noundef %0, i32 noundef %1) #0 {
  %3 = alloca ptr, align 8
  %4 = alloca i32, align 4
  store ptr %0, ptr %3, align 8
  store i32 %1, ptr %4, align 4
  %5 = load ptr, ptr %3, align 8
  %6 = getelementptr inbounds %struct.Vec_Int_t_, ptr %5, i32 0, i32 0
  %7 = load i32, ptr %6, align 8
  %8 = load i32, ptr %4, align 4
  %9 = icmp sge i32 %7, %8
  br i1 %9, label %10, label %11

10:                                               ; preds = %2
  br label %36

11:                                               ; preds = %2
  %12 = load ptr, ptr %3, align 8
  %13 = getelementptr inbounds %struct.Vec_Int_t_, ptr %12, i32 0, i32 2
  %14 = load ptr, ptr %13, align 8
  %15 = icmp ne ptr %14, null
  br i1 %15, label %16, label %24

16:                                               ; preds = %11
  %17 = load ptr, ptr %3, align 8
  %18 = getelementptr inbounds %struct.Vec_Int_t_, ptr %17, i32 0, i32 2
  %19 = load ptr, ptr %18, align 8
  %20 = load i32, ptr %4, align 4
  %21 = sext i32 %20 to i64
  %22 = mul i64 4, %21
  %23 = call ptr @realloc(ptr noundef %19, i64 noundef %22) #12
  br label %29

24:                                               ; preds = %11
  %25 = load i32, ptr %4, align 4
  %26 = sext i32 %25 to i64
  %27 = mul i64 4, %26
  %28 = call noalias ptr @malloc(i64 noundef %27) #10
  br label %29

29:                                               ; preds = %24, %16
  %30 = phi ptr [ %23, %16 ], [ %28, %24 ]
  %31 = load ptr, ptr %3, align 8
  %32 = getelementptr inbounds %struct.Vec_Int_t_, ptr %31, i32 0, i32 2
  store ptr %30, ptr %32, align 8
  %33 = load i32, ptr %4, align 4
  %34 = load ptr, ptr %3, align 8
  %35 = getelementptr inbounds %struct.Vec_Int_t_, ptr %34, i32 0, i32 0
  store i32 %33, ptr %35, align 8
  br label %36

36:                                               ; preds = %29, %10
  ret void
}

; Function Attrs: nounwind uwtable
define internal i32 @Gia_ObjId(ptr noundef %0, ptr noundef %1) #0 {
  %3 = alloca ptr, align 8
  %4 = alloca ptr, align 8
  store ptr %0, ptr %3, align 8
  store ptr %1, ptr %4, align 8
  %5 = load ptr, ptr %4, align 8
  %6 = load ptr, ptr %3, align 8
  %7 = getelementptr inbounds %struct.Gia_Man_t_, ptr %6, i32 0, i32 6
  %8 = load ptr, ptr %7, align 8
  %9 = ptrtoint ptr %5 to i64
  %10 = ptrtoint ptr %8 to i64
  %11 = sub i64 %9, %10
  %12 = sdiv exact i64 %11, 12
  %13 = trunc i64 %12 to i32
  ret i32 %13
}

; Function Attrs: nounwind uwtable
define internal void @Mig_ObjSetSiblId(ptr noundef %0, i32 noundef %1) #0 {
  %3 = alloca ptr, align 8
  %4 = alloca i32, align 4
  store ptr %0, ptr %3, align 8
  store i32 %1, ptr %4, align 4
  %5 = load ptr, ptr %3, align 8
  %6 = call ptr @Mig_ObjMan(ptr noundef %5)
  %7 = getelementptr inbounds %struct.Mig_Man_t_, ptr %6, i32 0, i32 12
  %8 = load ptr, ptr %3, align 8
  %9 = call i32 @Mig_ObjId(ptr noundef %8)
  %10 = load i32, ptr %4, align 4
  call void @Vec_IntWriteEntry(ptr noundef %7, i32 noundef %9, i32 noundef %10)
  ret void
}

; Function Attrs: nounwind uwtable
define internal i32 @Abc_Lit2Var(i32 noundef %0) #0 {
  %2 = alloca i32, align 4
  store i32 %0, ptr %2, align 4
  %3 = load i32, ptr %2, align 4
  %4 = ashr i32 %3, 1
  ret i32 %4
}

; Function Attrs: nounwind uwtable
define internal ptr @Gia_ObjSiblObj(ptr noundef %0, i32 noundef %1) #0 {
  %3 = alloca ptr, align 8
  %4 = alloca i32, align 4
  store ptr %0, ptr %3, align 8
  store i32 %1, ptr %4, align 4
  %5 = load ptr, ptr %3, align 8
  %6 = getelementptr inbounds %struct.Gia_Man_t_, ptr %5, i32 0, i32 29
  %7 = load ptr, ptr %6, align 8
  %8 = icmp ne ptr %7, null
  br i1 %8, label %9, label %28

9:                                                ; preds = %2
  %10 = load ptr, ptr %3, align 8
  %11 = getelementptr inbounds %struct.Gia_Man_t_, ptr %10, i32 0, i32 29
  %12 = load ptr, ptr %11, align 8
  %13 = load i32, ptr %4, align 4
  %14 = sext i32 %13 to i64
  %15 = getelementptr inbounds i32, ptr %12, i64 %14
  %16 = load i32, ptr %15, align 4
  %17 = icmp ne i32 %16, 0
  br i1 %17, label %18, label %28

18:                                               ; preds = %9
  %19 = load ptr, ptr %3, align 8
  %20 = load ptr, ptr %3, align 8
  %21 = getelementptr inbounds %struct.Gia_Man_t_, ptr %20, i32 0, i32 29
  %22 = load ptr, ptr %21, align 8
  %23 = load i32, ptr %4, align 4
  %24 = sext i32 %23 to i64
  %25 = getelementptr inbounds i32, ptr %22, i64 %24
  %26 = load i32, ptr %25, align 4
  %27 = call ptr @Gia_ManObj(ptr noundef %19, i32 noundef %26)
  br label %29

28:                                               ; preds = %9, %2
  br label %29

29:                                               ; preds = %28, %18
  %30 = phi ptr [ %27, %18 ], [ null, %28 ]
  ret ptr %30
}

; Function Attrs: nounwind uwtable
define internal i32 @Gia_ObjSibl(ptr noundef %0, i32 noundef %1) #0 {
  %3 = alloca ptr, align 8
  %4 = alloca i32, align 4
  store ptr %0, ptr %3, align 8
  store i32 %1, ptr %4, align 4
  %5 = load ptr, ptr %3, align 8
  %6 = getelementptr inbounds %struct.Gia_Man_t_, ptr %5, i32 0, i32 29
  %7 = load ptr, ptr %6, align 8
  %8 = icmp ne ptr %7, null
  br i1 %8, label %9, label %17

9:                                                ; preds = %2
  %10 = load ptr, ptr %3, align 8
  %11 = getelementptr inbounds %struct.Gia_Man_t_, ptr %10, i32 0, i32 29
  %12 = load ptr, ptr %11, align 8
  %13 = load i32, ptr %4, align 4
  %14 = sext i32 %13 to i64
  %15 = getelementptr inbounds i32, ptr %12, i64 %14
  %16 = load i32, ptr %15, align 4
  br label %18

17:                                               ; preds = %2
  br label %18

18:                                               ; preds = %17, %9
  %19 = phi i32 [ %16, %9 ], [ 0, %17 ]
  ret i32 %19
}

; Function Attrs: nounwind uwtable
define internal void @Mig_ObjSetPhase(ptr noundef %0, i32 noundef %1) #0 {
  %3 = alloca ptr, align 8
  %4 = alloca i32, align 4
  store ptr %0, ptr %3, align 8
  store i32 %1, ptr %4, align 4
  %5 = load ptr, ptr %3, align 8
  %6 = load i32, ptr %4, align 4
  %7 = call i32 @Mig_FanSetCompl(ptr noundef %5, i32 noundef 3, i32 noundef %6)
  ret void
}

; Function Attrs: nounwind uwtable
define internal ptr @Mig_ManObj(ptr noundef %0, i32 noundef %1) #0 {
  %3 = alloca ptr, align 8
  %4 = alloca i32, align 4
  store ptr %0, ptr %3, align 8
  store i32 %1, ptr %4, align 4
  %5 = load ptr, ptr %3, align 8
  %6 = load i32, ptr %4, align 4
  %7 = call ptr @Mig_ManPage(ptr noundef %5, i32 noundef %6)
  %8 = load i32, ptr %4, align 4
  %9 = call i32 @Mig_IdCell(i32 noundef %8)
  %10 = sext i32 %9 to i64
  %11 = getelementptr inbounds %struct.Mig_Obj_t_, ptr %7, i64 %10
  ret ptr %11
}

; Function Attrs: nounwind uwtable
define internal ptr @Gia_ManObj(ptr noundef %0, i32 noundef %1) #0 {
  %3 = alloca ptr, align 8
  %4 = alloca i32, align 4
  store ptr %0, ptr %3, align 8
  store i32 %1, ptr %4, align 4
  %5 = load ptr, ptr %3, align 8
  %6 = getelementptr inbounds %struct.Gia_Man_t_, ptr %5, i32 0, i32 6
  %7 = load ptr, ptr %6, align 8
  %8 = load i32, ptr %4, align 4
  %9 = sext i32 %8 to i64
  %10 = getelementptr inbounds %struct.Gia_Obj_t_, ptr %7, i64 %9
  ret ptr %10
}

; Function Attrs: nounwind uwtable
define internal void @Vec_IntFill(ptr noundef %0, i32 noundef %1, i32 noundef %2) #0 {
  %4 = alloca ptr, align 8
  %5 = alloca i32, align 4
  %6 = alloca i32, align 4
  %7 = alloca i32, align 4
  store ptr %0, ptr %4, align 8
  store i32 %1, ptr %5, align 4
  store i32 %2, ptr %6, align 4
  %8 = load ptr, ptr %4, align 8
  %9 = load i32, ptr %5, align 4
  call void @Vec_IntGrow(ptr noundef %8, i32 noundef %9)
  store i32 0, ptr %7, align 4
  br label %10

10:                                               ; preds = %22, %3
  %11 = load i32, ptr %7, align 4
  %12 = load i32, ptr %5, align 4
  %13 = icmp slt i32 %11, %12
  br i1 %13, label %14, label %25

14:                                               ; preds = %10
  %15 = load i32, ptr %6, align 4
  %16 = load ptr, ptr %4, align 8
  %17 = getelementptr inbounds %struct.Vec_Int_t_, ptr %16, i32 0, i32 2
  %18 = load ptr, ptr %17, align 8
  %19 = load i32, ptr %7, align 4
  %20 = sext i32 %19 to i64
  %21 = getelementptr inbounds i32, ptr %18, i64 %20
  store i32 %15, ptr %21, align 4
  br label %22

22:                                               ; preds = %14
  %23 = load i32, ptr %7, align 4
  %24 = add nsw i32 %23, 1
  store i32 %24, ptr %7, align 4
  br label %10, !llvm.loop !7

25:                                               ; preds = %10
  %26 = load i32, ptr %5, align 4
  %27 = load ptr, ptr %4, align 8
  %28 = getelementptr inbounds %struct.Vec_Int_t_, ptr %27, i32 0, i32 1
  store i32 %26, ptr %28, align 4
  ret void
}

; Function Attrs: nounwind uwtable
define internal i32 @Gia_ManObjNum(ptr noundef %0) #0 {
  %2 = alloca ptr, align 8
  store ptr %0, ptr %2, align 8
  %3 = load ptr, ptr %2, align 8
  %4 = getelementptr inbounds %struct.Gia_Man_t_, ptr %3, i32 0, i32 4
  %5 = load i32, ptr %4, align 8
  ret i32 %5
}

; Function Attrs: nounwind uwtable
define void @Mig_ManCreateChoices(ptr noundef %0, ptr noundef %1) #0 {
  %3 = alloca ptr, align 8
  %4 = alloca ptr, align 8
  %5 = alloca ptr, align 8
  %6 = alloca i32, align 4
  %7 = alloca ptr, align 8
  %8 = alloca ptr, align 8
  store ptr %0, ptr %3, align 8
  store ptr %1, ptr %4, align 8
  %9 = load ptr, ptr %3, align 8
  %10 = getelementptr inbounds %struct.Mig_Man_t_, ptr %9, i32 0, i32 12
  %11 = load ptr, ptr %4, align 8
  %12 = call i32 @Gia_ManObjNum(ptr noundef %11)
  call void @Vec_IntFill(ptr noundef %10, i32 noundef %12, i32 noundef 0)
  %13 = load ptr, ptr %4, align 8
  call void @Gia_ManMarkFanoutDrivers(ptr noundef %13)
  store i32 0, ptr %6, align 4
  br label %14

14:                                               ; preds = %80, %2
  %15 = load i32, ptr %6, align 4
  %16 = load ptr, ptr %4, align 8
  %17 = getelementptr inbounds %struct.Gia_Man_t_, ptr %16, i32 0, i32 4
  %18 = load i32, ptr %17, align 8
  %19 = icmp slt i32 %15, %18
  br i1 %19, label %20, label %25

20:                                               ; preds = %14
  %21 = load ptr, ptr %4, align 8
  %22 = load i32, ptr %6, align 4
  %23 = call ptr @Gia_ManObj(ptr noundef %21, i32 noundef %22)
  store ptr %23, ptr %5, align 8
  %24 = icmp ne ptr %23, null
  br label %25

25:                                               ; preds = %20, %14
  %26 = phi i1 [ false, %14 ], [ %24, %20 ]
  br i1 %26, label %27, label %83

27:                                               ; preds = %25
  %28 = load ptr, ptr %4, align 8
  %29 = load ptr, ptr %5, align 8
  call void @Gia_ObjSetPhase(ptr noundef %28, ptr noundef %29)
  %30 = load ptr, ptr %3, align 8
  %31 = load i32, ptr %6, align 4
  %32 = call ptr @Mig_ManObj(ptr noundef %30, i32 noundef %31)
  %33 = load ptr, ptr %5, align 8
  %34 = load i64, ptr %33, align 4
  %35 = lshr i64 %34, 63
  %36 = trunc i64 %35 to i32
  call void @Mig_ObjSetPhase(ptr noundef %32, i32 noundef %36)
  %37 = load ptr, ptr %4, align 8
  %38 = load i32, ptr %6, align 4
  %39 = call i32 @Gia_ObjSibl(ptr noundef %37, i32 noundef %38)
  %40 = icmp ne i32 %39, 0
  br i1 %40, label %41, label %79

41:                                               ; preds = %27
  %42 = load ptr, ptr %5, align 8
  %43 = load i64, ptr %42, align 4
  %44 = lshr i64 %43, 30
  %45 = and i64 %44, 1
  %46 = trunc i64 %45 to i32
  %47 = icmp ne i32 %46, 0
  br i1 %47, label %48, label %79

48:                                               ; preds = %41
  %49 = load ptr, ptr %5, align 8
  store ptr %49, ptr %8, align 8
  %50 = load ptr, ptr %4, align 8
  %51 = load i32, ptr %6, align 4
  %52 = call ptr @Gia_ObjSiblObj(ptr noundef %50, i32 noundef %51)
  store ptr %52, ptr %7, align 8
  br label %53

53:                                               ; preds = %67, %48
  %54 = load ptr, ptr %7, align 8
  %55 = icmp ne ptr %54, null
  br i1 %55, label %56, label %74

56:                                               ; preds = %53
  %57 = load ptr, ptr %3, align 8
  %58 = load ptr, ptr %8, align 8
  %59 = getelementptr inbounds %struct.Gia_Obj_t_, ptr %58, i32 0, i32 1
  %60 = load i32, ptr %59, align 4
  %61 = call i32 @Abc_Lit2Var(i32 noundef %60)
  %62 = call ptr @Mig_ManObj(ptr noundef %57, i32 noundef %61)
  %63 = load ptr, ptr %7, align 8
  %64 = getelementptr inbounds %struct.Gia_Obj_t_, ptr %63, i32 0, i32 1
  %65 = load i32, ptr %64, align 4
  %66 = call i32 @Abc_Lit2Var(i32 noundef %65)
  call void @Mig_ObjSetSiblId(ptr noundef %62, i32 noundef %66)
  br label %67

67:                                               ; preds = %56
  %68 = load ptr, ptr %7, align 8
  store ptr %68, ptr %8, align 8
  %69 = load ptr, ptr %4, align 8
  %70 = load ptr, ptr %4, align 8
  %71 = load ptr, ptr %7, align 8
  %72 = call i32 @Gia_ObjId(ptr noundef %70, ptr noundef %71)
  %73 = call ptr @Gia_ObjSiblObj(ptr noundef %69, i32 noundef %72)
  store ptr %73, ptr %7, align 8
  br label %53, !llvm.loop !4

74:                                               ; preds = %53
  %75 = load ptr, ptr %3, align 8
  %76 = getelementptr inbounds %struct.Mig_Man_t_, ptr %75, i32 0, i32 3
  %77 = load i32, ptr %76, align 8
  %78 = add nsw i32 %77, 1
  store i32 %78, ptr %76, align 8
  br label %79

79:                                               ; preds = %74, %41, %27
  br label %80

80:                                               ; preds = %79
  %81 = load i32, ptr %6, align 4
  %82 = add nsw i32 %81, 1
  store i32 %82, ptr %6, align 4
  br label %14, !llvm.loop !6

83:                                               ; preds = %25
  %84 = load ptr, ptr %4, align 8
  call void @Gia_ManCleanMark0(ptr noundef %84)
  ret void
}