; Function Attrs: nounwind uwtable
define void @Mig_ManCreateChoices(ptr noundef captures(none) %0, ptr noundef %1) local_unnamed_addr #0 {
  %3 = getelementptr inbounds nuw i8, ptr %0, i64 120
  %4 = getelementptr i8, ptr %1, i64 24
  %.val = load i32, ptr %4, align 8
  %5 = load i32, ptr %3, align 8
  %.not.i.i = icmp slt i32 %5, %.val
  br i1 %.not.i.i, label %6, label %Vec_IntGrow.exit.i

6:                                                ; preds = %2
  %7 = getelementptr inbounds nuw i8, ptr %0, i64 128
  %8 = load ptr, ptr %7, align 8
  %.not9.i.i = icmp eq ptr %8, null
  %9 = sext i32 %.val to i64
  %10 = shl nsw i64 %9, 2
  br i1 %.not9.i.i, label %13, label %11

11:                                               ; preds = %6
  %12 = tail call ptr @realloc(ptr noundef nonnull %8, i64 noundef %10) #14
  br label %15

13:                                               ; preds = %6
  %14 = tail call noalias ptr @malloc(i64 noundef %10) #15
  br label %15

15:                                               ; preds = %13, %11
  %16 = phi ptr [ %12, %11 ], [ %14, %13 ]
  store ptr %16, ptr %7, align 8
  store i32 %.val, ptr %3, align 8
  br label %Vec_IntGrow.exit.i

Vec_IntGrow.exit.i:                               ; preds = %15, %2
  %17 = icmp sgt i32 %.val, 0
  br i1 %17, label %.lr.ph.i, label %Vec_IntFill.exit

.lr.ph.i:                                         ; preds = %Vec_IntGrow.exit.i
  %18 = getelementptr inbounds nuw i8, ptr %0, i64 128
  %wide.trip.count.i = zext nneg i32 %.val to i64
  br label %19

19:                                               ; preds = %19, %.lr.ph.i
  %indvars.iv.i = phi i64 [ 0, %.lr.ph.i ], [ %indvars.iv.next.i, %19 ]
  %20 = load ptr, ptr %18, align 8
  %21 = getelementptr inbounds nuw i32, ptr %20, i64 %indvars.iv.i
  store i32 0, ptr %21, align 4
  %indvars.iv.next.i = add nuw nsw i64 %indvars.iv.i, 1
  %exitcond.not.i = icmp eq i64 %indvars.iv.next.i, %wide.trip.count.i
  br i1 %exitcond.not.i, label %Vec_IntFill.exit, label %19, !llvm.loop !4

Vec_IntFill.exit:                                 ; preds = %19, %Vec_IntGrow.exit.i
  %22 = getelementptr inbounds nuw i8, ptr %0, i64 124
  store i32 %.val, ptr %22, align 4
  tail call void @Gia_ManMarkFanoutDrivers(ptr noundef %1) #16
  %23 = getelementptr i8, ptr %1, i64 32
  %24 = load i32, ptr %4, align 8
  %25 = icmp sgt i32 %24, 0
  br i1 %25, label %.lr.ph49, label %.critedge

.lr.ph49:                                         ; preds = %Vec_IntFill.exit
  %26 = getelementptr i8, ptr %0, i64 32
  %27 = getelementptr i8, ptr %1, i64 208
  %28 = getelementptr inbounds nuw i8, ptr %0, i64 16
  br label %29

29:                                               ; preds = %.lr.ph49, %Gia_ObjSibl.exit.thread
  %indvars.iv = phi i64 [ 0, %.lr.ph49 ], [ %indvars.iv.next, %Gia_ObjSibl.exit.thread ]
  %.val34 = load ptr, ptr %23, align 8
  %30 = getelementptr inbounds nuw %struct.Gia_Obj_t_, ptr %.val34, i64 %indvars.iv
  %.not = icmp eq ptr %.val34, null
  br i1 %.not, label %.critedge, label %31

31:                                               ; preds = %29
  tail call void @Gia_ObjSetPhase(ptr noundef nonnull %1, ptr noundef nonnull %30) #16
  %.val35 = load ptr, ptr %26, align 8
  %32 = lshr i64 %indvars.iv, 12
  %33 = and i64 %32, 1048575
  %34 = getelementptr inbounds nuw ptr, ptr %.val35, i64 %33
  %35 = load ptr, ptr %34, align 8
  %36 = and i64 %indvars.iv, 4095
  %37 = load i64, ptr %30, align 4
  %38 = lshr i64 %37, 63
  %39 = trunc nuw nsw i64 %38 to i32
  %40 = getelementptr inbounds nuw %struct.Mig_Obj_t_, ptr %35, i64 %36, i32 0, i64 3
  %41 = load i32, ptr %40, align 4
  %42 = and i32 %41, -2
  %43 = or disjoint i32 %42, %39
  store i32 %43, ptr %40, align 4
  %.val37 = load ptr, ptr %27, align 8
  %.not.i = icmp eq ptr %.val37, null
  br i1 %.not.i, label %Gia_ObjSibl.exit.thread, label %Gia_ObjSibl.exit

Gia_ObjSibl.exit:                                 ; preds = %31
  %44 = getelementptr inbounds nuw i32, ptr %.val37, i64 %indvars.iv
  %45 = load i32, ptr %44, align 4
  %.not31 = icmp eq i32 %45, 0
  br i1 %.not31, label %Gia_ObjSibl.exit.thread, label %46

46:                                               ; preds = %Gia_ObjSibl.exit
  %47 = load i64, ptr %30, align 4
  %48 = and i64 %47, 1073741824
  %.not32 = icmp eq i64 %48, 0
  br i1 %.not32, label %Gia_ObjSibl.exit.thread, label %.lr.ph.preheader

.lr.ph.preheader:                                 ; preds = %46
  %.val.i = load ptr, ptr %23, align 8
  %49 = sext i32 %45 to i64
  %50 = getelementptr inbounds %struct.Gia_Obj_t_, ptr %.val.i, i64 %49
  br label %.lr.ph

.lr.ph:                                           ; preds = %76, %.lr.ph.preheader
  %.047 = phi ptr [ %30, %.lr.ph.preheader ], [ %.02846, %76 ]
  %.02846 = phi ptr [ %50, %.lr.ph.preheader ], [ %85, %76 ]
  %51 = getelementptr inbounds nuw i8, ptr %.047, i64 8
  %52 = load i32, ptr %51, align 4
  %53 = lshr i32 %52, 1
  %.val36 = load ptr, ptr %26, align 8
  %54 = ashr i32 %52, 13
  %55 = sext i32 %54 to i64
  %56 = getelementptr inbounds ptr, ptr %.val36, i64 %55
  %57 = load ptr, ptr %56, align 8
  %58 = and i32 %53, 4095
  %59 = zext nneg i32 %58 to i64
  %60 = getelementptr inbounds nuw %struct.Mig_Obj_t_, ptr %57, i64 %59
  %61 = getelementptr inbounds nuw i8, ptr %.02846, i64 8
  %62 = load i32, ptr %61, align 4
  %63 = ashr i32 %62, 1
  %64 = getelementptr i8, ptr %60, i64 12
  %.val.i.i = load i32, ptr %64, align 4
  %65 = lshr i32 %.val.i.i, 1
  %66 = and i32 %65, 4095
  %67 = zext nneg i32 %66 to i64
  %68 = sub nsw i64 0, %67
  %69 = getelementptr inbounds %struct.Mig_Obj_t_, ptr %60, i64 %68
  %70 = getelementptr inbounds i8, ptr %69, i64 -16
  %71 = load ptr, ptr %70, align 8
  %72 = getelementptr i8, ptr %71, i64 128
  %.val2.i = load ptr, ptr %72, align 8
  %73 = zext nneg i32 %65 to i64
  %74 = getelementptr inbounds nuw i32, ptr %.val2.i, i64 %73
  store i32 %63, ptr %74, align 4
  %75 = load ptr, ptr %27, align 8
  %.not.i40 = icmp eq ptr %75, null
  br i1 %.not.i40, label %._crit_edge, label %76

76:                                               ; preds = %.lr.ph
  %.val38 = load ptr, ptr %23, align 8
  %77 = ptrtoint ptr %.02846 to i64
  %78 = ptrtoint ptr %.val38 to i64
  %79 = sub i64 %77, %78
  %80 = sdiv exact i64 %79, 12
  %sext = shl i64 %80, 32
  %81 = ashr exact i64 %sext, 30
  %82 = getelementptr inbounds i8, ptr %75, i64 %81
  %83 = load i32, ptr %82, align 4
  %.not6.i41 = icmp eq i32 %83, 0
  %84 = sext i32 %83 to i64
  %85 = getelementptr inbounds %struct.Gia_Obj_t_, ptr %.val38, i64 %84
  %.not33 = icmp eq ptr %.val38, null
  %or.cond = or i1 %.not6.i41, %.not33
  br i1 %or.cond, label %._crit_edge, label %.lr.ph, !llvm.loop !6

._crit_edge:                                      ; preds = %.lr.ph, %76
  %86 = load i32, ptr %28, align 8
  %87 = add nsw i32 %86, 1
  store i32 %87, ptr %28, align 8
  br label %Gia_ObjSibl.exit.thread

Gia_ObjSibl.exit.thread:                          ; preds = %31, %Gia_ObjSibl.exit, %46, %._crit_edge
  %indvars.iv.next = add nuw nsw i64 %indvars.iv, 1
  %88 = load i32, ptr %4, align 8
  %89 = sext i32 %88 to i64
  %90 = icmp slt i64 %indvars.iv.next, %89
  br i1 %90, label %29, label %.critedge, !llvm.loop !7

.critedge:                                        ; preds = %29, %Gia_ObjSibl.exit.thread, %Vec_IntFill.exit
  tail call void @Gia_ManCleanMark0(ptr noundef nonnull %1) #16
  ret void
}